target datalayout = "e-m:e-p270:32:32-p271:32:32-p272:64:64-i64:64-i128:128-f80:128-n8:16:32:64-S128"
target triple = "x86_64-pc-linux-gnu"

%class.Register = type { i32 }
%class.RelocationHolder = type { [40 x i8] }
%class.AddressLiteral = type { %class.RelocationHolder, i8, ptr }
%class.Label = type <{ i32, [4 x i32], i32, ptr, i8, [7 x i8] }>

@g_assert_poison = external global ptr, align 8
@.str = private unnamed_addr constant [43 x i8] c"src/hotspot/cpu/x86/macroAssembler_x86.cpp\00", align 1

; Function Attrs: mustprogress nounwind uwtable
define linkonce_odr hidden noundef ptr @_ZNK16RelocationHolder5relocEv(ptr noundef nonnull align 8 dereferenceable(40) %0) #1 comdat align 2 {
  %2 = alloca ptr, align 8
  store ptr %0, ptr %2, align 8
  %3 = load ptr, ptr %2, align 8
  %4 = getelementptr inbounds %class.RelocationHolder, ptr %3, i32 0, i32 0
  %5 = getelementptr inbounds [40 x i8], ptr %4, i64 0, i64 0
  ret ptr %5
}

; Function Attrs: mustprogress nounwind uwtable
define linkonce_odr hidden void @_ZN16RelocationHolderC2ERKS_(ptr noundef nonnull align 8 dereferenceable(40) %0, ptr noundef nonnull align 8 dereferenceable(40) %1) unnamed_addr #1 comdat align 2 {
  %3 = alloca ptr, align 8
  %4 = alloca ptr, align 8
  store ptr %0, ptr %3, align 8
  store ptr %1, ptr %4, align 8
  %5 = load ptr, ptr %3, align 8
  %6 = load ptr, ptr %4, align 8
  %7 = call noundef ptr @_ZNK16RelocationHolder5relocEv(ptr noundef nonnull align 8 dereferenceable(40) %6)
  %8 = load ptr, ptr %7, align 8
  %9 = getelementptr inbounds ptr, ptr %8, i64 2
  %10 = load ptr, ptr %9, align 8
  call void %10(ptr noundef nonnull align 8 dereferenceable(20) %7, ptr noundef nonnull align 8 dereferenceable(40) %5)
  ret void
}

; Function Attrs: mustprogress nounwind uwtable
define linkonce_odr hidden void @_ZN5Label4initEv(ptr noundef nonnull align 8 dereferenceable(33) %0) #1 comdat align 2 {
  %2 = alloca ptr, align 8
  store ptr %0, ptr %2, align 8
  %3 = load ptr, ptr %2, align 8
  %4 = getelementptr inbounds %class.Label, ptr %3, i32 0, i32 0
  store i32 -1, ptr %4, align 8
  %5 = getelementptr inbounds %class.Label, ptr %3, i32 0, i32 2
  store i32 0, ptr %5, align 4
  %6 = getelementptr inbounds %class.Label, ptr %3, i32 0, i32 3
  store ptr null, ptr %6, align 8
  %7 = getelementptr inbounds %class.Label, ptr %3, i32 0, i32 4
  store i8 0, ptr %7, align 8
  ret void
}

; Function Attrs: mustprogress nounwind uwtable
define linkonce_odr hidden void @_ZN5LabelD2Ev(ptr noundef nonnull align 8 dereferenceable(33) %0) unnamed_addr #1 comdat align 2 {
  %2 = alloca ptr, align 8
  store ptr %0, ptr %2, align 8
  ret void
}

; Function Attrs: mustprogress nounwind uwtable
define linkonce_odr hidden void @_ZN14AddressLiteralC2ERKS_(ptr noundef nonnull align 8 dereferenceable(56) %0, ptr noundef nonnull align 8 dereferenceable(56) %1) unnamed_addr #1 comdat align 2 {
  %3 = alloca ptr, align 8
  %4 = alloca ptr, align 8
  store ptr %0, ptr %3, align 8
  store ptr %1, ptr %4, align 8
  %5 = load ptr, ptr %3, align 8
  %6 = getelementptr inbounds %class.AddressLiteral, ptr %5, i32 0, i32 0
  %7 = load ptr, ptr %4, align 8
  %8 = getelementptr inbounds %class.AddressLiteral, ptr %7, i32 0, i32 0
  call void @_ZN16RelocationHolderC2ERKS_(ptr noundef nonnull align 8 dereferenceable(40) %6, ptr noundef nonnull align 8 dereferenceable(40) %8)
  %9 = getelementptr inbounds %class.AddressLiteral, ptr %5, i32 0, i32 1
  %10 = load ptr, ptr %4, align 8
  %11 = getelementptr inbounds %class.AddressLiteral, ptr %10, i32 0, i32 1
  call void @llvm.memcpy.p0.p0.i64(ptr align 8 %9, ptr align 8 %11, i64 16, i1 false)
  ret void
}

; Function Attrs: mustprogress nounwind uwtable
define linkonce_odr hidden void @_ZN5LabelC2Ev(ptr noundef nonnull align 8 dereferenceable(33) %0) unnamed_addr #1 comdat align 2 {
  %2 = alloca ptr, align 8
  store ptr %0, ptr %2, align 8
  %3 = load ptr, ptr %2, align 8
  call void @_ZN5Label4initEv(ptr noundef nonnull align 8 dereferenceable(33) %3)
  ret void
}

; Function Attrs: mustprogress nounwind uwtable
define hidden noundef i32 @_ZN14MacroAssembler16negate_conditionEN9Assembler9ConditionE(i32 noundef %0) #1 align 2 {
  %2 = alloca i32, align 4
  %3 = alloca i32, align 4
  store i32 %0, ptr %3, align 4
  %4 = load i32, ptr %3, align 4
  switch i32 %4, label %21 [
    i32 4, label %5
    i32 5, label %6
    i32 12, label %7
    i32 14, label %8
    i32 15, label %9
    i32 13, label %10
    i32 2, label %11
    i32 6, label %12
    i32 7, label %13
    i32 3, label %14
    i32 0, label %15
    i32 1, label %16
    i32 8, label %17
    i32 9, label %18
    i32 10, label %19
    i32 11, label %20
  ]

5:                                                ; preds = %1
  store i32 5, ptr %2, align 4
  br label %25

6:                                                ; preds = %1
  store i32 4, ptr %2, align 4
  br label %25

7:                                                ; preds = %1
  store i32 13, ptr %2, align 4
  br label %25

8:                                                ; preds = %1
  store i32 15, ptr %2, align 4
  br label %25

9:                                                ; preds = %1
  store i32 14, ptr %2, align 4
  br label %25

10:                                               ; preds = %1
  store i32 12, ptr %2, align 4
  br label %25

11:                                               ; preds = %1
  store i32 3, ptr %2, align 4
  br label %25

12:                                               ; preds = %1
  store i32 7, ptr %2, align 4
  br label %25

13:                                               ; preds = %1
  store i32 6, ptr %2, align 4
  br label %25

14:                                               ; preds = %1
  store i32 2, ptr %2, align 4
  br label %25

15:                                               ; preds = %1
  store i32 1, ptr %2, align 4
  br label %25

16:                                               ; preds = %1
  store i32 0, ptr %2, align 4
  br label %25

17:                                               ; preds = %1
  store i32 9, ptr %2, align 4
  br label %25

18:                                               ; preds = %1
  store i32 8, ptr %2, align 4
  br label %25

19:                                               ; preds = %1
  store i32 11, ptr %2, align 4
  br label %25

20:                                               ; preds = %1
  store i32 10, ptr %2, align 4
  br label %25

21:                                               ; preds = %1
  br label %22

22:                                               ; preds = %21
  %23 = load ptr, ptr @g_assert_poison, align 8
  store i8 88, ptr %23, align 1
  call void @_Z28report_should_not_reach_herePKci(ptr noundef @.str, i32 noundef 10202) #8
  unreachable

24:                                               ; No predecessors!
  store i32 0, ptr %2, align 4
  br label %25

25:                                               ; preds = %24, %20, %19, %18, %17, %16, %15, %14, %13, %12, %11, %10, %9, %8, %7, %6, %5
  %26 = load i32, ptr %2, align 4
  ret i32 %26
}

; Function Attrs: mustprogress nounwind uwtable
define hidden void @_ZN14MacroAssembler10cond_inc32EN9Assembler9ConditionE14AddressLiteral8Register(ptr noundef nonnull align 8 dereferenceable(40) %0, i32 noundef %1, ptr noundef %2, i32 %3) #1 align 2 {
  %5 = alloca %class.Register, align 4
  %6 = alloca ptr, align 8
  %7 = alloca i32, align 4
  %8 = alloca ptr, align 8
  %9 = alloca i32, align 4
  %10 = alloca %class.Label, align 8
  %11 = alloca %class.AddressLiteral, align 8
  %12 = alloca %class.Register, align 4
  %13 = getelementptr inbounds %class.Register, ptr %5, i32 0, i32 0
  store i32 %3, ptr %13, align 4
  store ptr %0, ptr %6, align 8
  store i32 %1, ptr %7, align 4
  store ptr %2, ptr %8, align 8
  %14 = load ptr, ptr %6, align 8
  %15 = load i32, ptr %7, align 4
  %16 = call noundef i32 @_ZN14MacroAssembler16negate_conditionEN9Assembler9ConditionE(i32 noundef %15)
  store i32 %16, ptr %9, align 4
  call void @_ZN5LabelC2Ev(ptr noundef nonnull align 8 dereferenceable(33) %10)
  %17 = load i32, ptr %9, align 4
  call void @_ZN9Assembler3jccENS_9ConditionER5Labelb(ptr noundef nonnull align 8 dereferenceable(40) %14, i32 noundef %17, ptr noundef nonnull align 8 dereferenceable(33) %10, i1 noundef zeroext true)
  call void @_ZN9Assembler5pushfEv(ptr noundef nonnull align 8 dereferenceable(40) %14)
  call void @_ZN14AddressLiteralC2ERKS_(ptr noundef nonnull align 8 dereferenceable(56) %11, ptr noundef nonnull align 8 dereferenceable(56) %2)
  call void @llvm.memcpy.p0.p0.i64(ptr align 4 %12, ptr align 4 %5, i64 4, i1 false)
  %18 = getelementptr inbounds %class.Register, ptr %12, i32 0, i32 0
  %19 = load i32, ptr %18, align 4
  call void @_ZN14MacroAssembler11atomic_inclE14AddressLiteral8Register(ptr noundef nonnull align 8 dereferenceable(40) %14, ptr noundef %11, i32 %19)
  call void @_ZN9Assembler4popfEv(ptr noundef nonnull align 8 dereferenceable(40) %14)
  call void @_ZN17AbstractAssembler4bindER5Label(ptr noundef nonnull align 8 dereferenceable(24) %14, ptr noundef nonnull align 8 dereferenceable(33) %10)
  call void @_ZN5LabelD2Ev(ptr noundef nonnull align 8 dereferenceable(33) %10) #7
  ret void
}