; Function Attrs: mustprogress nounwind uwtable
define hidden void @_ZN14MacroAssembler10cond_inc32EN9Assembler9ConditionE14AddressLiteral8Register(ptr noundef nonnull align 8 dereferenceable(40) %0, i32 noundef %1, ptr noundef %2, i32 %3) local_unnamed_addr #0 align 2 {
  %5 = alloca %class.Label, align 8
  %6 = alloca %class.AddressLiteral, align 8
  %7 = icmp ult i32 %1, 16
  br i1 %7, label %switch.lookup, label %8

8:                                                ; preds = %4
  %9 = load ptr, ptr @g_assert_poison, align 8
  store i8 88, ptr %9, align 1
  tail call void @_Z28report_should_not_reach_herePKci(ptr noundef nonnull @.str, i32 noundef 10202) #19
  unreachable

switch.lookup:                                    ; preds = %4
  %10 = zext nneg i32 %1 to i64
  %switch.gep = getelementptr inbounds [16 x i32], ptr @switch.table._ZN14MacroAssembler6cmov32EN9Assembler9ConditionE8RegisterS2_, i64 0, i64 %10
  %switch.load = load i32, ptr %switch.gep, align 4
  store i32 -1, ptr %5, align 8
  %11 = getelementptr inbounds i8, ptr %5, i64 20
  store i32 0, ptr %11, align 4
  %12 = getelementptr inbounds i8, ptr %5, i64 24
  store ptr null, ptr %12, align 8
  %13 = getelementptr inbounds i8, ptr %5, i64 32
  store i8 0, ptr %13, align 8
  call void @_ZN9Assembler3jccENS_9ConditionER5Labelb(ptr noundef nonnull align 8 dereferenceable(40) %0, i32 noundef %switch.load, ptr noundef nonnull align 8 dereferenceable(33) %5, i1 noundef zeroext true) #18
  call void @_ZN9Assembler5pushfEv(ptr noundef nonnull align 8 dereferenceable(40) %0) #18
  %14 = load ptr, ptr %2, align 8
  %15 = getelementptr inbounds i8, ptr %14, i64 16
  %16 = load ptr, ptr %15, align 8
  call void %16(ptr noundef nonnull align 8 dereferenceable(20) %2, ptr noundef nonnull align 8 dereferenceable(40) %6) #18
  %17 = getelementptr inbounds i8, ptr %6, i64 40
  %18 = getelementptr inbounds i8, ptr %2, i64 40
  call void @llvm.memcpy.p0.p0.i64(ptr noundef nonnull align 8 dereferenceable(16) %17, ptr noundef nonnull align 8 dereferenceable(16) %18, i64 16, i1 false)
  call void @_ZN14MacroAssembler11atomic_inclE14AddressLiteral8Register(ptr noundef nonnull align 8 dereferenceable(40) %0, ptr noundef nonnull %6, i32 %3)
  call void @_ZN9Assembler4popfEv(ptr noundef nonnull align 8 dereferenceable(40) %0) #18
  call void @_ZN17AbstractAssembler4bindER5Label(ptr noundef nonnull align 8 dereferenceable(24) %0, ptr noundef nonnull align 8 dereferenceable(33) %5) #18
  ret void
}